; Function Attrs: null_pointer_is_valid sspstrong uwtable
define internal noundef zeroext i16 @de_nas_5gs_mm_mapped_nssai(ptr noundef %0, ptr noundef %1, ptr readnone captures(none) %2, i32 noundef %3, i32 noundef %4, ptr readnone captures(none) %5, i32 %6) #0 {
  %8 = alloca ptr, align 8
  %9 = alloca i32, align 4
  call void @llvm.lifetime.start.p0(i64 8, ptr nonnull %8) #12
  call void @llvm.lifetime.start.p0(i64 4, ptr nonnull %9) #12
  %.not = icmp eq i32 %4, 0
  br i1 %.not, label %._crit_edge, label %.lr.ph

.lr.ph:                                           ; preds = %7, %25
  %.026 = phi i32 [ %11, %25 ], [ 1, %7 ]
  %.02325 = phi i32 [ %.1, %25 ], [ %3, %7 ]
  %10 = load i32, ptr @ett_nas_5gs_mm_mapped_nssai, align 4
  %11 = add i32 %.026, 1
  %12 = call ptr (ptr, ptr, i32, i32, i32, ptr, ptr, ...) @proto_tree_add_subtree_format(ptr noundef %1, ptr noundef %0, i32 noundef %.02325, i32 noundef -1, i32 noundef %10, ptr noundef nonnull %8, ptr noundef nonnull @.str.1650, i32 noundef %.026)
  %13 = load i32, ptr @hf_nas_5gs_mm_len_of_mapped_s_nssai, align 4
  %14 = call ptr @proto_tree_add_item_ret_uint(ptr noundef %12, i32 noundef %13, ptr noundef %0, i32 noundef %.02325, i32 noundef 1, i32 noundef 0, ptr noundef nonnull %9)
  %15 = add i32 %.02325, 1
  %16 = load i32, ptr @hf_nas_5gs_mm_sst, align 4
  %17 = call ptr @proto_tree_add_item(ptr noundef %12, i32 noundef %16, ptr noundef %0, i32 noundef %15, i32 noundef 1, i32 noundef 0)
  %18 = add i32 %.02325, 2
  %19 = load i32, ptr %9, align 4
  %20 = icmp ugt i32 %19, 1
  br i1 %20, label %21, label %25

21:                                               ; preds = %.lr.ph
  %22 = load i32, ptr @hf_nas_5gs_mm_sd, align 4
  %23 = call ptr @proto_tree_add_item(ptr noundef %12, i32 noundef %22, ptr noundef %0, i32 noundef %18, i32 noundef 3, i32 noundef 0)
  %24 = add i32 %.02325, 5
  br label %25

25:                                               ; preds = %21, %.lr.ph
  %.1 = phi i32 [ %24, %21 ], [ %18, %.lr.ph ]
  %26 = load ptr, ptr %8, align 8
  %27 = sub i32 %.1, %.02325
  call void @proto_item_set_len(ptr noundef %26, i32 noundef %27)
  %28 = sub i32 %.1, %3
  %29 = icmp ult i32 %28, %4
  br i1 %29, label %.lr.ph, label %._crit_edge, !llvm.loop !19

._crit_edge:                                      ; preds = %25, %7
  %30 = trunc i32 %4 to i16
  call void @llvm.lifetime.end.p0(i64 4, ptr nonnull %9) #12
  call void @llvm.lifetime.end.p0(i64 8, ptr nonnull %8) #12
  ret i16 %30
}